; Function Attrs: mustprogress nofree norecurse nosync nounwind willreturn memory(argmem: read) uwtable
define noundef range(i32 0, 46) i32 @_ZNK7Imf_3_48TimeCode5frameEv(ptr noundef nonnull readonly align 4 captures(none) dereferenceable(8) %0) local_unnamed_addr #3 align 2 {
  %2 = load i32, ptr %0, align 4, !tbaa !3
  %3 = and i32 %2, 15
  %4 = lshr i32 %2, 4
  %5 = and i32 %4, 3
  %6 = mul nuw nsw i32 %5, 10
  %7 = add nuw nsw i32 %6, %3
  ret i32 %7
}